target datalayout = "e-m:e-p270:32:32-p271:32:32-p272:64:64-i64:64-i128:128-f80:128-n8:16:32:64-S128"
target triple = "x86_64-pc-linux-gnu"

%struct.mbedtls_mpi = type { i32, i64, ptr }

; Function Attrs: mustprogress uwtable
define internal void @_ZL19mbedtls_mpi_zeroizePmm(ptr noundef %0, i64 noundef %1) #1 {
  %3 = alloca ptr, align 8
  %4 = alloca i64, align 8
  store ptr %0, ptr %3, align 8, !tbaa !15
  store i64 %1, ptr %4, align 8, !tbaa !16
  %5 = load ptr, ptr %3, align 8, !tbaa !15
  %6 = load i64, ptr %4, align 8, !tbaa !16
  %7 = mul i64 8, %6
  call void @mbedtls_platform_zeroize(ptr noundef %5, i64 noundef %7)
  ret void
}

; Function Attrs: mustprogress nounwind uwtable
define internal noundef i64 @_ZL11mpi_sub_hlpmPmPKmS1_(i64 noundef %0, ptr noundef %1, ptr noundef %2, ptr noundef %3) #0 {
  %5 = alloca i64, align 8
  %6 = alloca ptr, align 8
  %7 = alloca ptr, align 8
  %8 = alloca ptr, align 8
  %9 = alloca i64, align 8
  %10 = alloca i64, align 8
  %11 = alloca i64, align 8
  %12 = alloca i64, align 8
  store i64 %0, ptr %5, align 8, !tbaa !16
  store ptr %1, ptr %6, align 8, !tbaa !15
  store ptr %2, ptr %7, align 8, !tbaa !15
  store ptr %3, ptr %8, align 8, !tbaa !15
  call void @llvm.lifetime.start.p0(i64 8, ptr %9) #10
  call void @llvm.lifetime.start.p0(i64 8, ptr %10) #10
  store i64 0, ptr %10, align 8, !tbaa !16
  call void @llvm.lifetime.start.p0(i64 8, ptr %11) #10
  call void @llvm.lifetime.start.p0(i64 8, ptr %12) #10
  store i64 0, ptr %9, align 8, !tbaa !16
  br label %13

13:                                               ; preds = %49, %4
  %14 = load i64, ptr %9, align 8, !tbaa !16
  %15 = load i64, ptr %5, align 8, !tbaa !16
  %16 = icmp ult i64 %14, %15
  br i1 %16, label %17, label %52

17:                                               ; preds = %13
  %18 = load ptr, ptr %7, align 8, !tbaa !15
  %19 = load i64, ptr %9, align 8, !tbaa !16
  %20 = getelementptr inbounds nuw i64, ptr %18, i64 %19
  %21 = load i64, ptr %20, align 8, !tbaa !16
  %22 = load i64, ptr %10, align 8, !tbaa !16
  %23 = icmp ult i64 %21, %22
  %24 = zext i1 %23 to i64
  store i64 %24, ptr %12, align 8, !tbaa !16
  %25 = load ptr, ptr %7, align 8, !tbaa !15
  %26 = load i64, ptr %9, align 8, !tbaa !16
  %27 = getelementptr inbounds nuw i64, ptr %25, i64 %26
  %28 = load i64, ptr %27, align 8, !tbaa !16
  %29 = load i64, ptr %10, align 8, !tbaa !16
  %30 = sub i64 %28, %29
  store i64 %30, ptr %11, align 8, !tbaa !16
  %31 = load i64, ptr %11, align 8, !tbaa !16
  %32 = load ptr, ptr %8, align 8, !tbaa !15
  %33 = load i64, ptr %9, align 8, !tbaa !16
  %34 = getelementptr inbounds nuw i64, ptr %32, i64 %33
  %35 = load i64, ptr %34, align 8, !tbaa !16
  %36 = icmp ult i64 %31, %35
  %37 = zext i1 %36 to i64
  %38 = load i64, ptr %12, align 8, !tbaa !16
  %39 = add i64 %37, %38
  store i64 %39, ptr %10, align 8, !tbaa !16
  %40 = load i64, ptr %11, align 8, !tbaa !16
  %41 = load ptr, ptr %8, align 8, !tbaa !15
  %42 = load i64, ptr %9, align 8, !tbaa !16
  %43 = getelementptr inbounds nuw i64, ptr %41, i64 %42
  %44 = load i64, ptr %43, align 8, !tbaa !16
  %45 = sub i64 %40, %44
  %46 = load ptr, ptr %6, align 8, !tbaa !15
  %47 = load i64, ptr %9, align 8, !tbaa !16
  %48 = getelementptr inbounds nuw i64, ptr %46, i64 %47
  store i64 %45, ptr %48, align 8, !tbaa !16
  br label %49

49:                                               ; preds = %17
  %50 = load i64, ptr %9, align 8, !tbaa !16
  %51 = add i64 %50, 1
  store i64 %51, ptr %9, align 8, !tbaa !16
  br label %13, !llvm.loop !59

52:                                               ; preds = %13
  %53 = load i64, ptr %10, align 8, !tbaa !16
  call void @llvm.lifetime.end.p0(i64 8, ptr %12) #10
  call void @llvm.lifetime.end.p0(i64 8, ptr %11) #10
  call void @llvm.lifetime.end.p0(i64 8, ptr %10) #10
  call void @llvm.lifetime.end.p0(i64 8, ptr %9) #10
  ret i64 %53
}

; Function Attrs: mustprogress uwtable
define hidden i32 @mbedtls_mpi_grow(ptr noundef %0, i64 noundef %1) #1 {
  %3 = alloca i32, align 4
  %4 = alloca ptr, align 8
  %5 = alloca i64, align 8
  %6 = alloca ptr, align 8
  %7 = alloca i32, align 4
  store ptr %0, ptr %4, align 8, !tbaa !3
  store i64 %1, ptr %5, align 8, !tbaa !16
  call void @llvm.lifetime.start.p0(i64 8, ptr %6) #10
  br label %8

8:                                                ; preds = %2
  br label %9

9:                                                ; preds = %8
  br label %10

10:                                               ; preds = %9
  %11 = load i64, ptr %5, align 8, !tbaa !16
  %12 = icmp ugt i64 %11, 10000
  br i1 %12, label %13, label %14

13:                                               ; preds = %10
  store i32 -16, ptr %3, align 4
  store i32 1, ptr %7, align 4
  br label %56

14:                                               ; preds = %10
  %15 = load ptr, ptr %4, align 8, !tbaa !3
  %16 = getelementptr inbounds nuw %struct.mbedtls_mpi, ptr %15, i32 0, i32 1
  %17 = load i64, ptr %16, align 8, !tbaa !13
  %18 = load i64, ptr %5, align 8, !tbaa !16
  %19 = icmp ult i64 %17, %18
  br i1 %19, label %20, label %55

20:                                               ; preds = %14
  %21 = load i64, ptr %5, align 8, !tbaa !16
  %22 = call noalias ptr @calloc(i64 noundef %21, i64 noundef 8) #11
  store ptr %22, ptr %6, align 8, !tbaa !15
  %23 = icmp eq ptr %22, null
  br i1 %23, label %24, label %25

24:                                               ; preds = %20
  store i32 -16, ptr %3, align 4
  store i32 1, ptr %7, align 4
  br label %56

25:                                               ; preds = %20
  %26 = load ptr, ptr %4, align 8, !tbaa !3
  %27 = getelementptr inbounds nuw %struct.mbedtls_mpi, ptr %26, i32 0, i32 2
  %28 = load ptr, ptr %27, align 8, !tbaa !14
  %29 = icmp ne ptr %28, null
  br i1 %29, label %30, label %48

30:                                               ; preds = %25
  %31 = load ptr, ptr %6, align 8, !tbaa !15
  %32 = load ptr, ptr %4, align 8, !tbaa !3
  %33 = getelementptr inbounds nuw %struct.mbedtls_mpi, ptr %32, i32 0, i32 2
  %34 = load ptr, ptr %33, align 8, !tbaa !14
  %35 = load ptr, ptr %4, align 8, !tbaa !3
  %36 = getelementptr inbounds nuw %struct.mbedtls_mpi, ptr %35, i32 0, i32 1
  %37 = load i64, ptr %36, align 8, !tbaa !13
  %38 = mul i64 %37, 8
  call void @llvm.memcpy.p0.p0.i64(ptr align 8 %31, ptr align 8 %34, i64 %38, i1 false)
  %39 = load ptr, ptr %4, align 8, !tbaa !3
  %40 = getelementptr inbounds nuw %struct.mbedtls_mpi, ptr %39, i32 0, i32 2
  %41 = load ptr, ptr %40, align 8, !tbaa !14
  %42 = load ptr, ptr %4, align 8, !tbaa !3
  %43 = getelementptr inbounds nuw %struct.mbedtls_mpi, ptr %42, i32 0, i32 1
  %44 = load i64, ptr %43, align 8, !tbaa !13
  call void @_ZL19mbedtls_mpi_zeroizePmm(ptr noundef %41, i64 noundef %44)
  %45 = load ptr, ptr %4, align 8, !tbaa !3
  %46 = getelementptr inbounds nuw %struct.mbedtls_mpi, ptr %45, i32 0, i32 2
  %47 = load ptr, ptr %46, align 8, !tbaa !14
  call void @free(ptr noundef %47) #10
  br label %48

48:                                               ; preds = %30, %25
  %49 = load i64, ptr %5, align 8, !tbaa !16
  %50 = load ptr, ptr %4, align 8, !tbaa !3
  %51 = getelementptr inbounds nuw %struct.mbedtls_mpi, ptr %50, i32 0, i32 1
  store i64 %49, ptr %51, align 8, !tbaa !13
  %52 = load ptr, ptr %6, align 8, !tbaa !15
  %53 = load ptr, ptr %4, align 8, !tbaa !3
  %54 = getelementptr inbounds nuw %struct.mbedtls_mpi, ptr %53, i32 0, i32 2
  store ptr %52, ptr %54, align 8, !tbaa !14
  br label %55

55:                                               ; preds = %48, %14
  store i32 0, ptr %3, align 4
  store i32 1, ptr %7, align 4
  br label %56

56:                                               ; preds = %55, %24, %13
  call void @llvm.lifetime.end.p0(i64 8, ptr %6) #10
  %57 = load i32, ptr %3, align 4
  ret i32 %57
}

; Function Attrs: mustprogress uwtable
define hidden i32 @mbedtls_mpi_sub_abs(ptr noundef %0, ptr noundef %1, ptr noundef %2) #1 {
  %4 = alloca ptr, align 8
  %5 = alloca ptr, align 8
  %6 = alloca ptr, align 8
  %7 = alloca i32, align 4
  %8 = alloca i64, align 8
  %9 = alloca i64, align 8
  store ptr %0, ptr %4, align 8, !tbaa !3
  store ptr %1, ptr %5, align 8, !tbaa !3
  store ptr %2, ptr %6, align 8, !tbaa !3
  call void @llvm.lifetime.start.p0(i64 4, ptr %7) #10
  store i32 -110, ptr %7, align 4, !tbaa !19
  call void @llvm.lifetime.start.p0(i64 8, ptr %8) #10
  call void @llvm.lifetime.start.p0(i64 8, ptr %9) #10
  br label %10

10:                                               ; preds = %3
  br label %11

11:                                               ; preds = %10
  br label %12

12:                                               ; preds = %11
  br label %13

13:                                               ; preds = %12
  br label %14

14:                                               ; preds = %13
  br label %15

15:                                               ; preds = %14
  br label %16

16:                                               ; preds = %15
  br label %17

17:                                               ; preds = %16
  br label %18

18:                                               ; preds = %17
  %19 = load ptr, ptr %6, align 8, !tbaa !3
  %20 = getelementptr inbounds nuw %struct.mbedtls_mpi, ptr %19, i32 0, i32 1
  %21 = load i64, ptr %20, align 8, !tbaa !13
  store i64 %21, ptr %8, align 8, !tbaa !16
  br label %22

22:                                               ; preds = %36, %18
  %23 = load i64, ptr %8, align 8, !tbaa !16
  %24 = icmp ugt i64 %23, 0
  br i1 %24, label %25, label %39

25:                                               ; preds = %22
  %26 = load ptr, ptr %6, align 8, !tbaa !3
  %27 = getelementptr inbounds nuw %struct.mbedtls_mpi, ptr %26, i32 0, i32 2
  %28 = load ptr, ptr %27, align 8, !tbaa !14
  %29 = load i64, ptr %8, align 8, !tbaa !16
  %30 = sub i64 %29, 1
  %31 = getelementptr inbounds nuw i64, ptr %28, i64 %30
  %32 = load i64, ptr %31, align 8, !tbaa !16
  %33 = icmp ne i64 %32, 0
  br i1 %33, label %34, label %35

34:                                               ; preds = %25
  br label %39

35:                                               ; preds = %25
  br label %36

36:                                               ; preds = %35
  %37 = load i64, ptr %8, align 8, !tbaa !16
  %38 = add i64 %37, -1
  store i64 %38, ptr %8, align 8, !tbaa !16
  br label %22, !llvm.loop !57

39:                                               ; preds = %34, %22
  %40 = load i64, ptr %8, align 8, !tbaa !16
  %41 = load ptr, ptr %5, align 8, !tbaa !3
  %42 = getelementptr inbounds nuw %struct.mbedtls_mpi, ptr %41, i32 0, i32 1
  %43 = load i64, ptr %42, align 8, !tbaa !13
  %44 = icmp ugt i64 %40, %43
  br i1 %44, label %45, label %46

45:                                               ; preds = %39
  store i32 -10, ptr %7, align 4, !tbaa !19
  br label %164

46:                                               ; preds = %39
  br label %47

47:                                               ; preds = %46
  %48 = load ptr, ptr %4, align 8, !tbaa !3
  %49 = load ptr, ptr %5, align 8, !tbaa !3
  %50 = getelementptr inbounds nuw %struct.mbedtls_mpi, ptr %49, i32 0, i32 1
  %51 = load i64, ptr %50, align 8, !tbaa !13
  %52 = call i32 @mbedtls_mpi_grow(ptr noundef %48, i64 noundef %51)
  store i32 %52, ptr %7, align 4, !tbaa !19
  %53 = icmp ne i32 %52, 0
  br i1 %53, label %54, label %55

54:                                               ; preds = %47
  br label %164

55:                                               ; preds = %47
  br label %56

56:                                               ; preds = %55
  br label %57

57:                                               ; preds = %56
  %58 = load ptr, ptr %5, align 8, !tbaa !3
  %59 = getelementptr inbounds nuw %struct.mbedtls_mpi, ptr %58, i32 0, i32 1
  %60 = load i64, ptr %59, align 8, !tbaa !13
  %61 = load i64, ptr %8, align 8, !tbaa !16
  %62 = icmp ugt i64 %60, %61
  br i1 %62, label %63, label %80

63:                                               ; preds = %57
  %64 = load ptr, ptr %4, align 8, !tbaa !3
  %65 = getelementptr inbounds nuw %struct.mbedtls_mpi, ptr %64, i32 0, i32 2
  %66 = load ptr, ptr %65, align 8, !tbaa !14
  %67 = load i64, ptr %8, align 8, !tbaa !16
  %68 = getelementptr inbounds nuw i64, ptr %66, i64 %67
  %69 = load ptr, ptr %5, align 8, !tbaa !3
  %70 = getelementptr inbounds nuw %struct.mbedtls_mpi, ptr %69, i32 0, i32 2
  %71 = load ptr, ptr %70, align 8, !tbaa !14
  %72 = load i64, ptr %8, align 8, !tbaa !16
  %73 = getelementptr inbounds nuw i64, ptr %71, i64 %72
  %74 = load ptr, ptr %5, align 8, !tbaa !3
  %75 = getelementptr inbounds nuw %struct.mbedtls_mpi, ptr %74, i32 0, i32 1
  %76 = load i64, ptr %75, align 8, !tbaa !13
  %77 = load i64, ptr %8, align 8, !tbaa !16
  %78 = sub i64 %76, %77
  %79 = mul i64 %78, 8
  call void @llvm.memcpy.p0.p0.i64(ptr align 8 %68, ptr align 8 %73, i64 %79, i1 false)
  br label %80

80:                                               ; preds = %63, %57
  %81 = load ptr, ptr %4, align 8, !tbaa !3
  %82 = getelementptr inbounds nuw %struct.mbedtls_mpi, ptr %81, i32 0, i32 1
  %83 = load i64, ptr %82, align 8, !tbaa !13
  %84 = load ptr, ptr %5, align 8, !tbaa !3
  %85 = getelementptr inbounds nuw %struct.mbedtls_mpi, ptr %84, i32 0, i32 1
  %86 = load i64, ptr %85, align 8, !tbaa !13
  %87 = icmp ugt i64 %83, %86
  br i1 %87, label %88, label %104

88:                                               ; preds = %80
  %89 = load ptr, ptr %4, align 8, !tbaa !3
  %90 = getelementptr inbounds nuw %struct.mbedtls_mpi, ptr %89, i32 0, i32 2
  %91 = load ptr, ptr %90, align 8, !tbaa !14
  %92 = load ptr, ptr %5, align 8, !tbaa !3
  %93 = getelementptr inbounds nuw %struct.mbedtls_mpi, ptr %92, i32 0, i32 1
  %94 = load i64, ptr %93, align 8, !tbaa !13
  %95 = getelementptr inbounds nuw i64, ptr %91, i64 %94
  %96 = load ptr, ptr %4, align 8, !tbaa !3
  %97 = getelementptr inbounds nuw %struct.mbedtls_mpi, ptr %96, i32 0, i32 1
  %98 = load i64, ptr %97, align 8, !tbaa !13
  %99 = load ptr, ptr %5, align 8, !tbaa !3
  %100 = getelementptr inbounds nuw %struct.mbedtls_mpi, ptr %99, i32 0, i32 1
  %101 = load i64, ptr %100, align 8, !tbaa !13
  %102 = sub i64 %98, %101
  %103 = mul i64 %102, 8
  call void @llvm.memset.p0.i64(ptr align 8 %95, i8 0, i64 %103, i1 false)
  br label %104

104:                                              ; preds = %88, %80
  %105 = load i64, ptr %8, align 8, !tbaa !16
  %106 = load ptr, ptr %4, align 8, !tbaa !3
  %107 = getelementptr inbounds nuw %struct.mbedtls_mpi, ptr %106, i32 0, i32 2
  %108 = load ptr, ptr %107, align 8, !tbaa !14
  %109 = load ptr, ptr %5, align 8, !tbaa !3
  %110 = getelementptr inbounds nuw %struct.mbedtls_mpi, ptr %109, i32 0, i32 2
  %111 = load ptr, ptr %110, align 8, !tbaa !14
  %112 = load ptr, ptr %6, align 8, !tbaa !3
  %113 = getelementptr inbounds nuw %struct.mbedtls_mpi, ptr %112, i32 0, i32 2
  %114 = load ptr, ptr %113, align 8, !tbaa !14
  %115 = call noundef i64 @_ZL11mpi_sub_hlpmPmPKmS1_(i64 noundef %105, ptr noundef %108, ptr noundef %111, ptr noundef %114)
  store i64 %115, ptr %9, align 8, !tbaa !16
  %116 = load i64, ptr %9, align 8, !tbaa !16
  %117 = icmp ne i64 %116, 0
  br i1 %117, label %118, label %161

118:                                              ; preds = %104
  br label %119

119:                                              ; preds = %143, %118
  %120 = load i64, ptr %8, align 8, !tbaa !16
  %121 = load ptr, ptr %4, align 8, !tbaa !3
  %122 = getelementptr inbounds nuw %struct.mbedtls_mpi, ptr %121, i32 0, i32 1
  %123 = load i64, ptr %122, align 8, !tbaa !13
  %124 = icmp ult i64 %120, %123
  br i1 %124, label %125, label %133

125:                                              ; preds = %119
  %126 = load ptr, ptr %4, align 8, !tbaa !3
  %127 = getelementptr inbounds nuw %struct.mbedtls_mpi, ptr %126, i32 0, i32 2
  %128 = load ptr, ptr %127, align 8, !tbaa !14
  %129 = load i64, ptr %8, align 8, !tbaa !16
  %130 = getelementptr inbounds nuw i64, ptr %128, i64 %129
  %131 = load i64, ptr %130, align 8, !tbaa !16
  %132 = icmp eq i64 %131, 0
  br label %133

133:                                              ; preds = %125, %119
  %134 = phi i1 [ false, %119 ], [ %132, %125 ]
  br i1 %134, label %135, label %146

135:                                              ; preds = %133
  %136 = load ptr, ptr %4, align 8, !tbaa !3
  %137 = getelementptr inbounds nuw %struct.mbedtls_mpi, ptr %136, i32 0, i32 2
  %138 = load ptr, ptr %137, align 8, !tbaa !14
  %139 = load i64, ptr %8, align 8, !tbaa !16
  %140 = getelementptr inbounds nuw i64, ptr %138, i64 %139
  %141 = load i64, ptr %140, align 8, !tbaa !16
  %142 = add i64 %141, -1
  store i64 %142, ptr %140, align 8, !tbaa !16
  br label %143

143:                                              ; preds = %135
  %144 = load i64, ptr %8, align 8, !tbaa !16
  %145 = add i64 %144, 1
  store i64 %145, ptr %8, align 8, !tbaa !16
  br label %119, !llvm.loop !58

146:                                              ; preds = %133
  %147 = load i64, ptr %8, align 8, !tbaa !16
  %148 = load ptr, ptr %4, align 8, !tbaa !3
  %149 = getelementptr inbounds nuw %struct.mbedtls_mpi, ptr %148, i32 0, i32 1
  %150 = load i64, ptr %149, align 8, !tbaa !13
  %151 = icmp eq i64 %147, %150
  br i1 %151, label %152, label %153

152:                                              ; preds = %146
  store i32 -10, ptr %7, align 4, !tbaa !19
  br label %164

153:                                              ; preds = %146
  %154 = load ptr, ptr %4, align 8, !tbaa !3
  %155 = getelementptr inbounds nuw %struct.mbedtls_mpi, ptr %154, i32 0, i32 2
  %156 = load ptr, ptr %155, align 8, !tbaa !14
  %157 = load i64, ptr %8, align 8, !tbaa !16
  %158 = getelementptr inbounds nuw i64, ptr %156, i64 %157
  %159 = load i64, ptr %158, align 8, !tbaa !16
  %160 = add i64 %159, -1
  store i64 %160, ptr %158, align 8, !tbaa !16
  br label %161

161:                                              ; preds = %153, %104
  %162 = load ptr, ptr %4, align 8, !tbaa !3
  %163 = getelementptr inbounds nuw %struct.mbedtls_mpi, ptr %162, i32 0, i32 0
  store i32 1, ptr %163, align 8, !tbaa !8
  br label %164

164:                                              ; preds = %161, %152, %54, %45
  %165 = load i32, ptr %7, align 4, !tbaa !19
  call void @llvm.lifetime.end.p0(i64 8, ptr %9) #10
  call void @llvm.lifetime.end.p0(i64 8, ptr %8) #10
  call void @llvm.lifetime.end.p0(i64 4, ptr %7) #10
  ret i32 %165
}