; Function Attrs: mustprogress uwtable
define hidden range(i32 -16, 1) i32 @mbedtls_mpi_sub_abs(ptr noundef captures(none) %0, ptr noundef readonly captures(none) %1, ptr noundef readonly captures(none) %2) local_unnamed_addr #1 {
  %4 = getelementptr inbounds nuw i8, ptr %2, i64 8
  %5 = load i64, ptr %4, align 8, !tbaa !12
  %.not57 = icmp eq i64 %5, 0
  br i1 %.not57, label %._crit_edge.thread, label %.lr.ph

.lr.ph:                                           ; preds = %3
  %6 = getelementptr inbounds nuw i8, ptr %2, i64 16
  %7 = load ptr, ptr %6, align 8, !tbaa !11
  %invariant.gep = getelementptr i8, ptr %7, i64 -8
  br label %8

8:                                                ; preds = %.lr.ph, %10
  %.04058 = phi i64 [ %5, %.lr.ph ], [ %11, %10 ]
  %gep = getelementptr i64, ptr %invariant.gep, i64 %.04058
  %9 = load i64, ptr %gep, align 8, !tbaa !13
  %.not48 = icmp eq i64 %9, 0
  br i1 %.not48, label %10, label %._crit_edge

10:                                               ; preds = %8
  %11 = add i64 %.04058, -1
  %.not = icmp eq i64 %11, 0
  br i1 %.not, label %._crit_edge.thread, label %8, !llvm.loop !49

._crit_edge.thread:                               ; preds = %10, %3
  %12 = getelementptr inbounds nuw i8, ptr %1, i64 8
  %13 = load i64, ptr %12, align 8, !tbaa !12
  br label %17

._crit_edge:                                      ; preds = %8
  %14 = getelementptr inbounds nuw i8, ptr %1, i64 8
  %15 = load i64, ptr %14, align 8, !tbaa !12
  %16 = icmp ugt i64 %.04058, %15
  br i1 %16, label %mbedtls_mpi_grow.exit, label %17

17:                                               ; preds = %._crit_edge.thread, %._crit_edge
  %18 = phi i64 [ %13, %._crit_edge.thread ], [ %15, %._crit_edge ]
  %19 = phi ptr [ %12, %._crit_edge.thread ], [ %14, %._crit_edge ]
  %.not.lcssa77 = phi i1 [ true, %._crit_edge.thread ], [ false, %._crit_edge ]
  %.040.lcssa76 = phi i64 [ 0, %._crit_edge.thread ], [ %.04058, %._crit_edge ]
  %20 = icmp ugt i64 %18, 10000
  br i1 %20, label %mbedtls_mpi_grow.exit, label %21

21:                                               ; preds = %17
  %22 = getelementptr inbounds nuw i8, ptr %0, i64 8
  %23 = load i64, ptr %22, align 8, !tbaa !12
  %24 = icmp ult i64 %23, %18
  br i1 %24, label %25, label %35

25:                                               ; preds = %21
  %26 = tail call noalias ptr @calloc(i64 noundef %18, i64 noundef 8) #16
  %27 = icmp eq ptr %26, null
  br i1 %27, label %mbedtls_mpi_grow.exit, label %28

28:                                               ; preds = %25
  %29 = getelementptr inbounds nuw i8, ptr %0, i64 16
  %30 = load ptr, ptr %29, align 8, !tbaa !11
  %.not.i = icmp eq ptr %30, null
  br i1 %.not.i, label %34, label %31

31:                                               ; preds = %28
  %32 = shl nuw nsw i64 %23, 3
  tail call void @llvm.memcpy.p0.p0.i64(ptr nonnull align 8 %26, ptr nonnull align 8 %30, i64 %32, i1 false)
  tail call void @mbedtls_platform_zeroize(ptr noundef nonnull %30, i64 noundef %32)
  %33 = load ptr, ptr %29, align 8, !tbaa !11
  tail call void @free(ptr noundef %33) #15
  br label %34

34:                                               ; preds = %31, %28
  store i64 %18, ptr %22, align 8, !tbaa !12
  store ptr %26, ptr %29, align 8, !tbaa !11
  %.pre = load i64, ptr %19, align 8, !tbaa !12
  br label %35

35:                                               ; preds = %34, %21
  %36 = phi i64 [ %18, %34 ], [ %23, %21 ]
  %37 = phi i64 [ %.pre, %34 ], [ %18, %21 ]
  %38 = icmp ugt i64 %37, %.040.lcssa76
  br i1 %38, label %39, label %48

39:                                               ; preds = %35
  %40 = getelementptr inbounds nuw i8, ptr %0, i64 16
  %41 = load ptr, ptr %40, align 8, !tbaa !11
  %42 = getelementptr inbounds nuw i64, ptr %41, i64 %.040.lcssa76
  %43 = getelementptr inbounds nuw i8, ptr %1, i64 16
  %44 = load ptr, ptr %43, align 8, !tbaa !11
  %45 = getelementptr inbounds nuw i64, ptr %44, i64 %.040.lcssa76
  %46 = sub nuw i64 %37, %.040.lcssa76
  %47 = shl i64 %46, 3
  tail call void @llvm.memcpy.p0.p0.i64(ptr align 8 %42, ptr align 8 %45, i64 %47, i1 false)
  %.pre72 = load i64, ptr %22, align 8, !tbaa !12
  %.pre73 = load i64, ptr %19, align 8, !tbaa !12
  br label %48

48:                                               ; preds = %39, %35
  %49 = phi i64 [ %.pre73, %39 ], [ %37, %35 ]
  %50 = phi i64 [ %.pre72, %39 ], [ %36, %35 ]
  %51 = icmp ugt i64 %50, %49
  br i1 %51, label %52, label %58

52:                                               ; preds = %48
  %53 = getelementptr inbounds nuw i8, ptr %0, i64 16
  %54 = load ptr, ptr %53, align 8, !tbaa !11
  %55 = getelementptr inbounds nuw i64, ptr %54, i64 %49
  %56 = sub nuw i64 %50, %49
  %57 = shl i64 %56, 3
  tail call void @llvm.memset.p0.i64(ptr align 8 %55, i8 0, i64 %57, i1 false)
  br label %58

58:                                               ; preds = %52, %48
  %59 = getelementptr inbounds nuw i8, ptr %0, i64 16
  %60 = load ptr, ptr %59, align 8, !tbaa !11
  %61 = getelementptr inbounds nuw i8, ptr %1, i64 16
  %62 = load ptr, ptr %61, align 8, !tbaa !11
  %63 = getelementptr inbounds nuw i8, ptr %2, i64 16
  %64 = load ptr, ptr %63, align 8, !tbaa !11
  br i1 %.not.lcssa77, label %_ZL11mpi_sub_hlpmPmPKmS1_.exit.thread, label %.lr.ph.i

.lr.ph.i:                                         ; preds = %58, %.lr.ph.i
  %.020.i = phi i64 [ %77, %.lr.ph.i ], [ 0, %58 ]
  %.01819.i = phi i64 [ %74, %.lr.ph.i ], [ 0, %58 ]
  %65 = getelementptr inbounds nuw i64, ptr %62, i64 %.020.i
  %66 = load i64, ptr %65, align 8, !tbaa !13
  %67 = icmp ult i64 %66, %.01819.i
  %68 = zext i1 %67 to i64
  %69 = sub i64 %66, %.01819.i
  %70 = getelementptr inbounds nuw i64, ptr %64, i64 %.020.i
  %71 = load i64, ptr %70, align 8, !tbaa !13
  %72 = icmp ult i64 %69, %71
  %73 = zext i1 %72 to i64
  %74 = add nuw nsw i64 %73, %68
  %75 = sub i64 %69, %71
  %76 = getelementptr inbounds nuw i64, ptr %60, i64 %.020.i
  store i64 %75, ptr %76, align 8, !tbaa !13
  %77 = add nuw i64 %.020.i, 1
  %exitcond.not.i = icmp eq i64 %77, %.040.lcssa76
  br i1 %exitcond.not.i, label %_ZL11mpi_sub_hlpmPmPKmS1_.exit, label %.lr.ph.i, !llvm.loop !50

_ZL11mpi_sub_hlpmPmPKmS1_.exit:                   ; preds = %.lr.ph.i
  %.not50 = icmp eq i64 %74, 0
  br i1 %.not50, label %_ZL11mpi_sub_hlpmPmPKmS1_.exit.thread, label %.preheader

.preheader:                                       ; preds = %_ZL11mpi_sub_hlpmPmPKmS1_.exit
  %78 = load i64, ptr %22, align 8, !tbaa !12
  %79 = icmp ult i64 %.040.lcssa76, %78
  br i1 %79, label %.lr.ph65.preheader, label %.critedge

.lr.ph65.preheader:                               ; preds = %.preheader
  %80 = getelementptr inbounds nuw i64, ptr %60, i64 %.040.lcssa76
  %81 = load i64, ptr %80, align 8, !tbaa !13
  %82 = icmp eq i64 %81, 0
  br i1 %82, label %.lr.ph83, label %.critedge

.lr.ph65:                                         ; preds = %.lr.ph83
  %83 = getelementptr inbounds nuw i64, ptr %60, i64 %87
  %84 = load i64, ptr %83, align 8, !tbaa !13
  %85 = icmp eq i64 %84, 0
  br i1 %85, label %.lr.ph83, label %.critedge, !llvm.loop !51

.lr.ph83:                                         ; preds = %.lr.ph65.preheader, %.lr.ph65
  %86 = phi ptr [ %83, %.lr.ph65 ], [ %80, %.lr.ph65.preheader ]
  %.16482 = phi i64 [ %87, %.lr.ph65 ], [ %.040.lcssa76, %.lr.ph65.preheader ]
  store i64 -1, ptr %86, align 8, !tbaa !13
  %87 = add nuw i64 %.16482, 1
  %88 = load i64, ptr %22, align 8, !tbaa !12
  %89 = icmp ult i64 %87, %88
  br i1 %89, label %.lr.ph65, label %.critedge, !llvm.loop !51

.critedge:                                        ; preds = %.lr.ph83, %.lr.ph65, %.lr.ph65.preheader, %.preheader
  %.1.lcssa = phi i64 [ %.040.lcssa76, %.preheader ], [ %.040.lcssa76, %.lr.ph65.preheader ], [ %87, %.lr.ph65 ], [ %87, %.lr.ph83 ]
  %.lcssa = phi i64 [ %78, %.preheader ], [ %78, %.lr.ph65.preheader ], [ %88, %.lr.ph65 ], [ %88, %.lr.ph83 ]
  %90 = icmp eq i64 %.1.lcssa, %.lcssa
  br i1 %90, label %mbedtls_mpi_grow.exit, label %91

91:                                               ; preds = %.critedge
  %92 = getelementptr inbounds nuw i64, ptr %60, i64 %.1.lcssa
  %93 = load i64, ptr %92, align 8, !tbaa !13
  %94 = add i64 %93, -1
  store i64 %94, ptr %92, align 8, !tbaa !13
  br label %_ZL11mpi_sub_hlpmPmPKmS1_.exit.thread

_ZL11mpi_sub_hlpmPmPKmS1_.exit.thread:            ; preds = %58, %91, %_ZL11mpi_sub_hlpmPmPKmS1_.exit
  store i32 1, ptr %0, align 8, !tbaa !3
  br label %mbedtls_mpi_grow.exit

mbedtls_mpi_grow.exit:                            ; preds = %25, %17, %.critedge, %._crit_edge, %_ZL11mpi_sub_hlpmPmPKmS1_.exit.thread
  %.0 = phi i32 [ 0, %_ZL11mpi_sub_hlpmPmPKmS1_.exit.thread ], [ -10, %._crit_edge ], [ -10, %.critedge ], [ -16, %17 ], [ -16, %25 ]
  ret i32 %.0
}